
tp.o:     file format elf32-i386


Disassembly of section .text:

00000000 <userland>:
   0:	55                   	push   %ebp
   1:	89 e5                	mov    %esp,%ebp
   3:	83 ec 08             	sub    $0x8,%esp
   6:	83 ec 0c             	sub    $0xc,%esp
   9:	68 00 00 00 00       	push   $0x0
   e:	e8 fc ff ff ff       	call   f <userland+0xf>
  13:	83 c4 10             	add    $0x10,%esp
  16:	0f 22 c0             	mov    %eax,%cr0
  19:	90                   	nop
  1a:	c9                   	leave
  1b:	c3                   	ret

0000001c <prepare_gdt>:
  1c:	55                   	push   %ebp
  1d:	89 e5                	mov    %esp,%ebp
  1f:	83 ec 40             	sub    $0x40,%esp
  22:	c7 45 c8 00 00 00 00 	movl   $0x0,-0x38(%ebp)
  29:	c7 45 cc 00 00 00 00 	movl   $0x0,-0x34(%ebp)
  30:	0f b7 45 d0          	movzwl -0x30(%ebp),%eax
  34:	83 c8 ff             	or     $0xffffffff,%eax
  37:	66 89 45 d0          	mov    %ax,-0x30(%ebp)
  3b:	0f b7 45 d2          	movzwl -0x2e(%ebp),%eax
  3f:	83 e0 00             	and    $0x0,%eax
  42:	66 89 45 d2          	mov    %ax,-0x2e(%ebp)
  46:	c6 45 d4 00          	movb   $0x0,-0x2c(%ebp)
  4a:	0f b6 45 d5          	movzbl -0x2b(%ebp),%eax
  4e:	83 e0 f0             	and    $0xfffffff0,%eax
  51:	83 c8 0b             	or     $0xb,%eax
  54:	88 45 d5             	mov    %al,-0x2b(%ebp)
  57:	0f b6 45 d5          	movzbl -0x2b(%ebp),%eax
  5b:	83 c8 10             	or     $0x10,%eax
  5e:	88 45 d5             	mov    %al,-0x2b(%ebp)
  61:	0f b6 45 d5          	movzbl -0x2b(%ebp),%eax
  65:	83 e0 9f             	and    $0xffffff9f,%eax
  68:	88 45 d5             	mov    %al,-0x2b(%ebp)
  6b:	0f b6 45 d5          	movzbl -0x2b(%ebp),%eax
  6f:	83 c8 80             	or     $0xffffff80,%eax
  72:	88 45 d5             	mov    %al,-0x2b(%ebp)
  75:	0f b6 45 d6          	movzbl -0x2a(%ebp),%eax
  79:	83 c8 0f             	or     $0xf,%eax
  7c:	88 45 d6             	mov    %al,-0x2a(%ebp)
  7f:	0f b6 45 d6          	movzbl -0x2a(%ebp),%eax
  83:	83 c8 10             	or     $0x10,%eax
  86:	88 45 d6             	mov    %al,-0x2a(%ebp)
  89:	0f b6 45 d6          	movzbl -0x2a(%ebp),%eax
  8d:	83 e0 df             	and    $0xffffffdf,%eax
  90:	88 45 d6             	mov    %al,-0x2a(%ebp)
  93:	0f b6 45 d6          	movzbl -0x2a(%ebp),%eax
  97:	83 c8 40             	or     $0x40,%eax
  9a:	88 45 d6             	mov    %al,-0x2a(%ebp)
  9d:	0f b6 45 d6          	movzbl -0x2a(%ebp),%eax
  a1:	83 c8 80             	or     $0xffffff80,%eax
  a4:	88 45 d6             	mov    %al,-0x2a(%ebp)
  a7:	c6 45 d7 00          	movb   $0x0,-0x29(%ebp)
  ab:	0f b7 45 d8          	movzwl -0x28(%ebp),%eax
  af:	83 c8 ff             	or     $0xffffffff,%eax
  b2:	66 89 45 d8          	mov    %ax,-0x28(%ebp)
  b6:	0f b7 45 da          	movzwl -0x26(%ebp),%eax
  ba:	83 e0 00             	and    $0x0,%eax
  bd:	66 89 45 da          	mov    %ax,-0x26(%ebp)
  c1:	c6 45 dc 00          	movb   $0x0,-0x24(%ebp)
  c5:	0f b6 45 dd          	movzbl -0x23(%ebp),%eax
  c9:	83 e0 f0             	and    $0xfffffff0,%eax
  cc:	83 c8 03             	or     $0x3,%eax
  cf:	88 45 dd             	mov    %al,-0x23(%ebp)
  d2:	0f b6 45 dd          	movzbl -0x23(%ebp),%eax
  d6:	83 c8 10             	or     $0x10,%eax
  d9:	88 45 dd             	mov    %al,-0x23(%ebp)
  dc:	0f b6 45 dd          	movzbl -0x23(%ebp),%eax
  e0:	83 e0 9f             	and    $0xffffff9f,%eax
  e3:	88 45 dd             	mov    %al,-0x23(%ebp)
  e6:	0f b6 45 dd          	movzbl -0x23(%ebp),%eax
  ea:	83 c8 80             	or     $0xffffff80,%eax
  ed:	88 45 dd             	mov    %al,-0x23(%ebp)
  f0:	0f b6 45 de          	movzbl -0x22(%ebp),%eax
  f4:	83 c8 0f             	or     $0xf,%eax
  f7:	88 45 de             	mov    %al,-0x22(%ebp)
  fa:	0f b6 45 de          	movzbl -0x22(%ebp),%eax
  fe:	83 c8 10             	or     $0x10,%eax
 101:	88 45 de             	mov    %al,-0x22(%ebp)
 104:	0f b6 45 de          	movzbl -0x22(%ebp),%eax
 108:	83 e0 df             	and    $0xffffffdf,%eax
 10b:	88 45 de             	mov    %al,-0x22(%ebp)
 10e:	0f b6 45 de          	movzbl -0x22(%ebp),%eax
 112:	83 c8 40             	or     $0x40,%eax
 115:	88 45 de             	mov    %al,-0x22(%ebp)
 118:	0f b6 45 de          	movzbl -0x22(%ebp),%eax
 11c:	83 c8 80             	or     $0xffffff80,%eax
 11f:	88 45 de             	mov    %al,-0x22(%ebp)
 122:	c6 45 df 00          	movb   $0x0,-0x21(%ebp)
 126:	0f b7 45 e0          	movzwl -0x20(%ebp),%eax
 12a:	83 e0 00             	and    $0x0,%eax
 12d:	83 c8 20             	or     $0x20,%eax
 130:	66 89 45 e0          	mov    %ax,-0x20(%ebp)
 134:	0f b7 45 e2          	movzwl -0x1e(%ebp),%eax
 138:	83 e0 00             	and    $0x0,%eax
 13b:	66 89 45 e2          	mov    %ax,-0x1e(%ebp)
 13f:	c6 45 e4 60          	movb   $0x60,-0x1c(%ebp)
 143:	0f b6 45 e5          	movzbl -0x1b(%ebp),%eax
 147:	83 e0 f0             	and    $0xfffffff0,%eax
 14a:	83 c8 03             	or     $0x3,%eax
 14d:	88 45 e5             	mov    %al,-0x1b(%ebp)
 150:	0f b6 45 e5          	movzbl -0x1b(%ebp),%eax
 154:	83 c8 10             	or     $0x10,%eax
 157:	88 45 e5             	mov    %al,-0x1b(%ebp)
 15a:	0f b6 45 e5          	movzbl -0x1b(%ebp),%eax
 15e:	83 e0 9f             	and    $0xffffff9f,%eax
 161:	88 45 e5             	mov    %al,-0x1b(%ebp)
 164:	0f b6 45 e5          	movzbl -0x1b(%ebp),%eax
 168:	83 c8 80             	or     $0xffffff80,%eax
 16b:	88 45 e5             	mov    %al,-0x1b(%ebp)
 16e:	0f b6 45 e6          	movzbl -0x1a(%ebp),%eax
 172:	83 e0 f0             	and    $0xfffffff0,%eax
 175:	88 45 e6             	mov    %al,-0x1a(%ebp)
 178:	0f b6 45 e6          	movzbl -0x1a(%ebp),%eax
 17c:	83 c8 10             	or     $0x10,%eax
 17f:	88 45 e6             	mov    %al,-0x1a(%ebp)
 182:	0f b6 45 e6          	movzbl -0x1a(%ebp),%eax
 186:	83 e0 df             	and    $0xffffffdf,%eax
 189:	88 45 e6             	mov    %al,-0x1a(%ebp)
 18c:	0f b6 45 e6          	movzbl -0x1a(%ebp),%eax
 190:	83 c8 40             	or     $0x40,%eax
 193:	88 45 e6             	mov    %al,-0x1a(%ebp)
 196:	0f b6 45 e6          	movzbl -0x1a(%ebp),%eax
 19a:	83 e0 7f             	and    $0x7f,%eax
 19d:	88 45 e6             	mov    %al,-0x1a(%ebp)
 1a0:	c6 45 e7 00          	movb   $0x0,-0x19(%ebp)
 1a4:	0f b7 45 e8          	movzwl -0x18(%ebp),%eax
 1a8:	83 c8 ff             	or     $0xffffffff,%eax
 1ab:	66 89 45 e8          	mov    %ax,-0x18(%ebp)
 1af:	0f b7 45 ea          	movzwl -0x16(%ebp),%eax
 1b3:	83 e0 00             	and    $0x0,%eax
 1b6:	66 89 45 ea          	mov    %ax,-0x16(%ebp)
 1ba:	c6 45 ec 00          	movb   $0x0,-0x14(%ebp)
 1be:	0f b6 45 ed          	movzbl -0x13(%ebp),%eax
 1c2:	83 e0 f0             	and    $0xfffffff0,%eax
 1c5:	83 c8 0b             	or     $0xb,%eax
 1c8:	88 45 ed             	mov    %al,-0x13(%ebp)
 1cb:	0f b6 45 ed          	movzbl -0x13(%ebp),%eax
 1cf:	83 c8 10             	or     $0x10,%eax
 1d2:	88 45 ed             	mov    %al,-0x13(%ebp)
 1d5:	0f b6 45 ed          	movzbl -0x13(%ebp),%eax
 1d9:	83 c8 60             	or     $0x60,%eax
 1dc:	88 45 ed             	mov    %al,-0x13(%ebp)
 1df:	0f b6 45 ed          	movzbl -0x13(%ebp),%eax
 1e3:	83 c8 80             	or     $0xffffff80,%eax
 1e6:	88 45 ed             	mov    %al,-0x13(%ebp)
 1e9:	0f b6 45 ee          	movzbl -0x12(%ebp),%eax
 1ed:	83 c8 0f             	or     $0xf,%eax
 1f0:	88 45 ee             	mov    %al,-0x12(%ebp)
 1f3:	0f b6 45 ee          	movzbl -0x12(%ebp),%eax
 1f7:	83 c8 10             	or     $0x10,%eax
 1fa:	88 45 ee             	mov    %al,-0x12(%ebp)
 1fd:	0f b6 45 ee          	movzbl -0x12(%ebp),%eax
 201:	83 e0 df             	and    $0xffffffdf,%eax
 204:	88 45 ee             	mov    %al,-0x12(%ebp)
 207:	0f b6 45 ee          	movzbl -0x12(%ebp),%eax
 20b:	83 c8 40             	or     $0x40,%eax
 20e:	88 45 ee             	mov    %al,-0x12(%ebp)
 211:	0f b6 45 ee          	movzbl -0x12(%ebp),%eax
 215:	83 c8 80             	or     $0xffffff80,%eax
 218:	88 45 ee             	mov    %al,-0x12(%ebp)
 21b:	c6 45 ef 00          	movb   $0x0,-0x11(%ebp)
 21f:	0f b7 45 f0          	movzwl -0x10(%ebp),%eax
 223:	83 c8 ff             	or     $0xffffffff,%eax
 226:	66 89 45 f0          	mov    %ax,-0x10(%ebp)
 22a:	0f b7 45 f2          	movzwl -0xe(%ebp),%eax
 22e:	83 e0 00             	and    $0x0,%eax
 231:	66 89 45 f2          	mov    %ax,-0xe(%ebp)
 235:	c6 45 f4 00          	movb   $0x0,-0xc(%ebp)
 239:	0f b6 45 f5          	movzbl -0xb(%ebp),%eax
 23d:	83 e0 f0             	and    $0xfffffff0,%eax
 240:	83 c8 03             	or     $0x3,%eax
 243:	88 45 f5             	mov    %al,-0xb(%ebp)
 246:	0f b6 45 f5          	movzbl -0xb(%ebp),%eax
 24a:	83 c8 10             	or     $0x10,%eax
 24d:	88 45 f5             	mov    %al,-0xb(%ebp)
 250:	0f b6 45 f5          	movzbl -0xb(%ebp),%eax
 254:	83 c8 60             	or     $0x60,%eax
 257:	88 45 f5             	mov    %al,-0xb(%ebp)
 25a:	0f b6 45 f5          	movzbl -0xb(%ebp),%eax
 25e:	83 c8 80             	or     $0xffffff80,%eax
 261:	88 45 f5             	mov    %al,-0xb(%ebp)
 264:	0f b6 45 f6          	movzbl -0xa(%ebp),%eax
 268:	83 c8 0f             	or     $0xf,%eax
 26b:	88 45 f6             	mov    %al,-0xa(%ebp)
 26e:	0f b6 45 f6          	movzbl -0xa(%ebp),%eax
 272:	83 c8 10             	or     $0x10,%eax
 275:	88 45 f6             	mov    %al,-0xa(%ebp)
 278:	0f b6 45 f6          	movzbl -0xa(%ebp),%eax
 27c:	83 e0 df             	and    $0xffffffdf,%eax
 27f:	88 45 f6             	mov    %al,-0xa(%ebp)
 282:	0f b6 45 f6          	movzbl -0xa(%ebp),%eax
 286:	83 c8 40             	or     $0x40,%eax
 289:	88 45 f6             	mov    %al,-0xa(%ebp)
 28c:	0f b6 45 f6          	movzbl -0xa(%ebp),%eax
 290:	83 c8 80             	or     $0xffffff80,%eax
 293:	88 45 f6             	mov    %al,-0xa(%ebp)
 296:	c6 45 f7 00          	movb   $0x0,-0x9(%ebp)
 29a:	8d 45 c8             	lea    -0x38(%ebp),%eax
 29d:	89 45 c4             	mov    %eax,-0x3c(%ebp)
 2a0:	66 c7 45 c2 37 00    	movw   $0x37,-0x3e(%ebp)
 2a6:	0f 01 55 c2          	lgdtl  -0x3e(%ebp)
 2aa:	90                   	nop
 2ab:	c9                   	leave
 2ac:	c3                   	ret

000002ad <tp>:
 2ad:	55                   	push   %ebp
 2ae:	89 e5                	mov    %esp,%ebp
 2b0:	e8 fc ff ff ff       	call   2b1 <tp+0x4>
 2b5:	16                   	push   %ss
 2b6:	54                   	push   %esp
 2b7:	90                   	nop
 2b8:	5d                   	pop    %ebp
 2b9:	c3                   	ret
